Certificate:
    Data:
        Version: 3 (0x2)
        Serial Number:
            55:fe:a2:cf:7f:44:e6:84:cc:63:c0:cf:09:0a:c2:cf
        Signature Algorithm: sha256WithRSAEncryption
        Issuer: CN=Snakeoil Swirl CA
        Validity
            Not Before: Oct  4 10:58:22 2022 GMT
            Not After : Jan  6 10:58:22 2025 GMT
        Subject: CN=client
        Subject Public Key Info:
            Public Key Algorithm: rsaEncryption
                RSA Public-Key: (2048 bit)
                Modulus:
                    00:e7:b1:f1:be:d1:6d:0e:5b:12:f7:90:f7:8b:14:
                    de:ba:c1:f9:a0:a5:05:60:e9:ef:83:c9:6d:85:b8:
                    55:5d:13:0b:94:e6:31:ad:21:32:fa:b2:df:a5:bf:
                    34:8f:c5:74:2e:bc:66:eb:4f:3b:2f:fe:c4:4c:37:
                    d2:74:f4:a1:c4:ad:10:fa:1e:fa:d7:a0:86:07:0c:
                    08:d9:8a:dc:bf:fa:f9:93:d4:61:50:b8:b0:45:99:
                    c1:6e:52:d8:da:e8:28:a8:ae:b9:2f:22:cd:92:b9:
                    27:ab:60:89:82:80:f5:b8:7d:d6:8b:6a:a2:c1:53:
                    d1:fb:cb:21:82:fc:fa:0c:cd:ed:40:da:c1:7e:ce:
                    db:48:45:c9:18:b1:fe:5d:b7:55:84:da:aa:de:74:
                    f7:b5:87:7a:08:c0:bd:92:e9:6c:d0:be:3c:62:ec:
                    53:8a:66:e0:f1:85:c8:8d:44:f8:fb:86:a2:cd:e8:
                    ac:07:d5:8d:40:4a:0f:3d:a2:4b:94:71:9a:83:e4:
                    d5:89:7f:f9:4d:84:39:9c:98:21:0a:9e:9f:19:1e:
                    ee:8c:80:51:ad:68:96:e6:a2:a3:02:99:9c:fd:b9:
                    50:48:1e:d1:d3:93:61:c3:31:41:95:b5:21:21:22:
                    fd:76:42:ac:12:b2:2e:e8:4e:41:70:fb:be:01:c8:
                    1e:87
                Exponent: 65537 (0x10001)
        X509v3 extensions:
            X509v3 Basic Constraints: 
                CA:FALSE
            X509v3 Subject Key Identifier: 
                A9:EC:1B:D5:DE:AA:CD:E1:FB:C8:55:7A:D7:E9:93:D6:EF:CA:ED:4C
            X509v3 Authority Key Identifier: 
                keyid:22:37:AC:96:19:85:4B:F4:1B:CB:C7:6E:33:47:C5:6A:39:52:D7:A2
                DirName:/CN=Snakeoil Swirl CA
                serial:6F:34:03:22:8A:8A:75:BF:6E:76:88:F2:53:C3:79:E9:8C:E3:39:F0

            X509v3 Extended Key Usage: 
                TLS Web Client Authentication
            X509v3 Key Usage: 
                Digital Signature
    Signature Algorithm: sha256WithRSAEncryption
         23:ed:b4:67:c8:a1:d9:29:a3:36:3f:79:a8:23:13:86:20:73:
         08:41:66:3d:98:9d:50:fa:7f:13:35:0b:00:9a:14:40:9a:d8:
         61:f6:fc:cf:fa:6e:7d:e9:9e:b8:04:8d:ea:55:d3:96:9f:8c:
         b0:05:37:3e:0e:c8:a2:e4:2c:f7:e2:73:b6:db:11:30:e2:a0:
         ab:82:37:55:9b:f0:10:8b:c9:8d:62:14:ae:00:52:e7:83:d0:
         5c:e3:bf:97:ec:21:a5:29:d1:57:eb:90:97:5f:27:6c:b1:e1:
         21:21:fb:35:22:c6:af:78:3b:ee:df:d9:52:08:38:50:38:a6:
         d9:3a:6f:81:e6:22:c9:c9:a8:02:30:ca:ec:09:8d:3d:48:c2:
         34:3c:4d:b2:22:8c:61:43:ba:3f:16:2b:86:5d:a9:cf:e9:f4:
         38:91:fd:d6:8d:5e:f3:44:93:8c:56:d6:d4:06:fb:0e:9d:03:
         4a:18:81:69:1c:58:d3:6c:d0:8b:8a:2f:2e:95:f6:2e:ba:59:
         03:e6:bd:bc:e7:a6:d3:45:a2:80:36:20:d1:3b:06:58:62:aa:
         f7:27:d0:6d:6c:30:81:0a:07:3b:8e:1c:ba:56:ed:6d:24:68:
         0b:05:6e:c9:a2:6f:84:58:a1:38:fc:0a:c0:9a:2b:f3:87:ef:
         91:c1:8f:f8
-----BEGIN CERTIFICATE-----
MIIDYDCCAkigAwIBAgIQVf6iz39E5oTMY8DPCQrCzzANBgkqhkiG9w0BAQsFADAc
MRowGAYDVQQDDBFTbmFrZW9pbCBTd2lybCBDQTAeFw0yMjEwMDQxMDU4MjJaFw0y
NTAxMDYxMDU4MjJaMBExDzANBgNVBAMMBmNsaWVudDCCASIwDQYJKoZIhvcNAQEB
BQADggEPADCCAQoCggEBAOex8b7RbQ5bEveQ94sU3rrB+aClBWDp74PJbYW4VV0T
C5TmMa0hMvqy36W/NI/FdC68ZutPOy/+xEw30nT0ocStEPoe+teghgcMCNmK3L/6
+ZPUYVC4sEWZwW5S2NroKKiuuS8izZK5J6tgiYKA9bh91otqosFT0fvLIYL8+gzN
7UDawX7O20hFyRix/l23VYTaqt5097WHegjAvZLpbNC+PGLsU4pm4PGFyI1E+PuG
os3orAfVjUBKDz2iS5RxmoPk1Yl/+U2EOZyYIQqenxke7oyAUa1oluaiowKZnP25
UEge0dOTYcMxQZW1ISEi/XZCrBKyLuhOQXD7vgHIHocCAwEAAaOBqDCBpTAJBgNV
HRMEAjAAMB0GA1UdDgQWBBSp7BvV3qrN4fvIVXrX6ZPW78rtTDBXBgNVHSMEUDBO
gBQiN6yWGYVL9BvLx24zR8VqOVLXoqEgpB4wHDEaMBgGA1UEAwwRU25ha2VvaWwg
U3dpcmwgQ0GCFG80AyKKinW/bnaI8lPDeemM4znwMBMGA1UdJQQMMAoGCCsGAQUF
BwMCMAsGA1UdDwQEAwIHgDANBgkqhkiG9w0BAQsFAAOCAQEAI+20Z8ih2SmjNj95
qCMThiBzCEFmPZidUPp/EzULAJoUQJrYYfb8z/pufemeuASN6lXTlp+MsAU3Pg7I
ouQs9+JzttsRMOKgq4I3VZvwEIvJjWIUrgBS54PQXOO/l+whpSnRV+uQl18nbLHh
ISH7NSLGr3g77t/ZUgg4UDim2TpvgeYiycmoAjDK7AmNPUjCNDxNsiKMYUO6PxYr
hl2pz+n0OJH91o1e80STjFbW1Ab7Dp0DShiBaRxY02zQi4ovLpX2LrpZA+a9vOem
00WigDYg0TsGWGKq9yfQbWwwgQoHO44culbtbSRoCwVuyaJvhFihOPwKwJor84fv
kcGP+A==
-----END CERTIFICATE-----
